; Function Attrs: mustprogress uwtable
define hidden noundef zeroext i1 @_ZNK3sat17integrity_checker13check_watchesEv(ptr nocapture noundef nonnull readonly align 8 dereferenceable(8) %this) local_unnamed_addr #4 align 2 {
entry:
  %0 = load ptr, ptr %this, align 8
  %m_watches = getelementptr inbounds i8, ptr %0, i64 3432
  %1 = load ptr, ptr %m_watches, align 8
  %cmp.i.i = icmp eq ptr %1, null
  br i1 %cmp.i.i, label %return, label %_ZNK6vectorIS_IN3sat7watchedELb1EjELb1EjE3endEv.exit

_ZNK6vectorIS_IN3sat7watchedELb1EjELb1EjE3endEv.exit: ; preds = %entry
  %arrayidx.i.i = getelementptr inbounds i8, ptr %1, i64 -4
  %2 = load i32, ptr %arrayidx.i.i, align 4
  %3 = zext i32 %2 to i64
  %add.ptr.i = getelementptr inbounds %class.vector.51, ptr %1, i64 %3
  %cmp.not7 = icmp eq i32 %2, 0
  br i1 %cmp.not7, label %return, label %for.body

for.body:                                         ; preds = %_ZNK6vectorIS_IN3sat7watchedELb1EjELb1EjE3endEv.exit, %if.end
  %l_idx.09 = phi i32 [ %inc, %if.end ], [ 0, %_ZNK6vectorIS_IN3sat7watchedELb1EjELb1EjE3endEv.exit ]
  %__begin1.08 = phi ptr [ %incdec.ptr, %if.end ], [ %1, %_ZNK6vectorIS_IN3sat7watchedELb1EjELb1EjE3endEv.exit ]
  %inc = add nuw i32 %l_idx.09, 1
  %xor.i = xor i32 %l_idx.09, 1
  %4 = load ptr, ptr %this, align 8
  %shr.i = lshr i32 %l_idx.09, 1
  %m_eliminated.i = getelementptr inbounds i8, ptr %4, i64 3480
  %5 = load ptr, ptr %m_eliminated.i, align 8
  %idxprom.i.i = zext nneg i32 %shr.i to i64
  %arrayidx.i.i5 = getelementptr inbounds i8, ptr %5, i64 %idxprom.i.i
  %6 = load i8, ptr %arrayidx.i.i5, align 1
  %7 = and i8 %6, 1
  %tobool.i.not = icmp eq i8 %7, 0
  br i1 %tobool.i.not, label %if.end, label %lor.lhs.false

lor.lhs.false:                                    ; preds = %for.body
  %8 = load ptr, ptr %__begin1.08, align 8
  %cmp.i = icmp eq ptr %8, null
  br i1 %cmp.i, label %if.end, label %_ZNK6vectorIN3sat7watchedELb1EjE5emptyEv.exit

_ZNK6vectorIN3sat7watchedELb1EjE5emptyEv.exit:    ; preds = %lor.lhs.false
  %arrayidx.i = getelementptr inbounds i8, ptr %8, i64 -4
  %9 = load i32, ptr %arrayidx.i, align 4
  %cmp3.i = icmp eq i32 %9, 0
  br i1 %cmp3.i, label %if.end, label %if.then

if.then:                                          ; preds = %_ZNK6vectorIN3sat7watchedELb1EjE5emptyEv.exit
  tail call void @_Z26notify_assertion_violationPKciS0_(ptr noundef nonnull @.str, i32 noundef 179, ptr noundef nonnull @.str.28)
  tail call void @exit(i32 noundef 114) #15
  unreachable

if.end:                                           ; preds = %lor.lhs.false, %_ZNK6vectorIN3sat7watchedELb1EjE5emptyEv.exit, %for.body
  %call13 = tail call noundef zeroext i1 @_ZNK3sat17integrity_checker13check_watchesENS_7literalERK6vectorINS_7watchedELb1EjE(ptr noundef nonnull align 8 dereferenceable(8) %this, i32 %xor.i, ptr noundef nonnull align 8 dereferenceable(8) %__begin1.08)
  %incdec.ptr = getelementptr inbounds i8, ptr %__begin1.08, i64 8
  %cmp.not = icmp eq ptr %incdec.ptr, %add.ptr.i
  br i1 %cmp.not, label %return, label %for.body

return:                                           ; preds = %if.end, %entry, %_ZNK6vectorIS_IN3sat7watchedELb1EjELb1EjE3endEv.exit
  ret i1 true
}